; Function Attrs: mustprogress uwtable
define hidden void @_ZN19OpenColorIO_v2_4dev17FinalizeOpsForCPUERNS_10OpRcPtrVecERKS0_NS_8BitDepthES4_NS_17OptimizationFlagsE(ptr noundef nonnull align 8 dereferenceable(144) %ops, ptr noundef nonnull align 8 dereferenceable(144) %rawOps, i32 noundef %in, i32 noundef %out, i64 noundef %oFlags) local_unnamed_addr #3 {
entry:
  %in.addr = alloca i32, align 4
  %out.addr = alloca i32, align 4
  store i32 %in, ptr %in.addr, align 4
  store i32 %out, ptr %out.addr, align 4
  %call = tail call noundef nonnull align 8 dereferenceable(144) ptr @_ZN19OpenColorIO_v2_4dev10OpRcPtrVecaSERKS0_(ptr noundef nonnull align 8 dereferenceable(144) %ops, ptr noundef nonnull align 8 dereferenceable(144) %rawOps)
  %0 = load ptr, ptr %ops, align 8
  %_M_finish.i.i.i = getelementptr inbounds i8, ptr %ops, i64 8
  %1 = load ptr, ptr %_M_finish.i.i.i, align 8
  %cmp.i.i.i = icmp eq ptr %0, %1
  br i1 %cmp.i.i.i, label %if.then3, label %if.end

if.end:                                           ; preds = %entry
  tail call void @_ZN19OpenColorIO_v2_4dev10OpRcPtrVec8finalizeEv(ptr noundef nonnull align 8 dereferenceable(144) %ops)
  tail call void @_ZN19OpenColorIO_v2_4dev10OpRcPtrVec8optimizeENS_17OptimizationFlagsE(ptr noundef nonnull align 8 dereferenceable(144) %ops, i64 noundef %oFlags)
  call void @_ZN19OpenColorIO_v2_4dev10OpRcPtrVec19optimizeForBitdepthERKNS_8BitDepthES3_NS_17OptimizationFlagsE(ptr noundef nonnull align 8 dereferenceable(144) %ops, ptr noundef nonnull align 4 dereferenceable(4) %in.addr, ptr noundef nonnull align 4 dereferenceable(4) %out.addr, i64 noundef %oFlags)
  %.pre = load ptr, ptr %ops, align 8
  %.pre12 = load ptr, ptr %_M_finish.i.i.i, align 8
  %cmp.i.i.i11 = icmp eq ptr %.pre, %.pre12
  br i1 %cmp.i.i.i11, label %if.then3, label %if.end4

if.then3:                                         ; preds = %entry, %if.end
  call void @_ZN19OpenColorIO_v2_4dev22CreateIdentityMatrixOpERNS_10OpRcPtrVecE(ptr noundef nonnull align 8 dereferenceable(144) %ops)
  br label %if.end4

if.end4:                                          ; preds = %if.then3, %if.end
  %and = and i64 %oFlags, 268435456
  %cmp.not = icmp eq i64 %and, 0
  br i1 %cmp.not, label %if.then5, label %if.end6

if.then5:                                         ; preds = %if.end4
  call void @_ZN19OpenColorIO_v2_4dev10OpRcPtrVec25validateDynamicPropertiesEv(ptr noundef nonnull align 8 dereferenceable(144) %ops)
  br label %if.end6

if.end6:                                          ; preds = %if.then5, %if.end4
  ret void
}